target datalayout = "e-m:e-p270:32:32-p271:32:32-p272:64:64-i64:64-i128:128-f80:128-n8:16:32:64-S128"
target triple = "x86_64-unknown-linux-gnu"

%struct.Hmac = type { %union.wc_HmacHash, [36 x i32], [36 x i32], [16 x i32], ptr, i8, i8 }
%union.wc_HmacHash = type { %struct.wc_Sha3 }
%struct.wc_Sha3 = type { [25 x i64], [200 x i8], i8, ptr }

; Function Attrs: nounwind uwtable
define i32 @wc_HmacInit(ptr noundef %hmac, ptr noundef %heap, i32 noundef %devId) #0 {
entry:
  %retval = alloca i32, align 4
  %hmac.addr = alloca ptr, align 8
  %heap.addr = alloca ptr, align 8
  %devId.addr = alloca i32, align 4
  %ret = alloca i32, align 4
  store ptr %hmac, ptr %hmac.addr, align 8
  store ptr %heap, ptr %heap.addr, align 8
  store i32 %devId, ptr %devId.addr, align 4
  store i32 0, ptr %ret, align 4
  %0 = load ptr, ptr %hmac.addr, align 8
  %cmp = icmp eq ptr %0, null
  br i1 %cmp, label %if.then, label %if.end

if.then:                                          ; preds = %entry
  store i32 -173, ptr %retval, align 4
  br label %return

if.end:                                           ; preds = %entry
  %1 = load ptr, ptr %hmac.addr, align 8
  call void @llvm.memset.p0.i64(ptr align 16 %1, i8 0, i64 784, i1 false)
  %2 = load ptr, ptr %hmac.addr, align 8
  %macType = getelementptr inbounds %struct.Hmac, ptr %2, i32 0, i32 5
  store i8 0, ptr %macType, align 8
  %3 = load ptr, ptr %heap.addr, align 8
  %4 = load ptr, ptr %hmac.addr, align 8
  %heap1 = getelementptr inbounds %struct.Hmac, ptr %4, i32 0, i32 4
  store ptr %3, ptr %heap1, align 16
  %5 = load i32, ptr %ret, align 4
  store i32 %5, ptr %retval, align 4
  br label %return

return:                                           ; preds = %if.end, %if.then
  %6 = load i32, ptr %retval, align 4
  ret i32 %6
}