; Function Attrs: mustprogress nofree norecurse nosync nounwind willreturn memory(argmem: write) uwtable
define range(i32 -173, 1) i32 @wc_HmacInit(ptr noundef writeonly %hmac, ptr noundef %heap, i32 noundef %devId) local_unnamed_addr #5 {
entry:
  %cmp = icmp eq ptr %hmac, null
  br i1 %cmp, label %return, label %if.end

if.end:                                           ; preds = %entry
  %heap1 = getelementptr inbounds nuw i8, ptr %hmac, i64 768
  tail call void @llvm.memset.p0.i64(ptr noundef nonnull align 16 dereferenceable(784) %hmac, i8 0, i64 784, i1 false)
  store ptr %heap, ptr %heap1, align 16
  br label %return

return:                                           ; preds = %entry, %if.end
  %retval.0 = phi i32 [ 0, %if.end ], [ -173, %entry ]
  ret i32 %retval.0
}